; Function Attrs: mustprogress uwtable
define void @_ZN3net30QuicMultipathSentPacketManager25NextPendingRetransmissionEv(ptr dead_on_unwind noalias writable sret(%"struct.net::PendingRetransmission") align 8 %0, ptr noundef nonnull readonly align 8 captures(none) dereferenceable(40) %1) unnamed_addr #0 align 2 personality ptr @__gxx_personality_v0 {
  %3 = alloca %"class.std::vector.18", align 8
  %4 = tail call noundef ptr @_ZNK3net30QuicMultipathSentPacketManager38MaybeGetSentPacketManagerForActivePathEh(ptr noundef nonnull align 8 dereferenceable(40) %1, i8 noundef zeroext 0)
  %5 = icmp eq ptr %4, null
  br i1 %5, label %_ZNSt6vectorIN3net9QuicFrameESaIS1_EED2Ev.exit, label %13

_ZNSt6vectorIN3net9QuicFrameESaIS1_EED2Ev.exit:   ; preds = %2
  tail call void @_ZN3net30QuicMultipathSentPacketManager24OnUnrecoverablePathErrorEh(ptr noundef nonnull align 8 dereferenceable(40) %1, i8 noundef zeroext 0)
  call void @llvm.lifetime.start.p0(i64 24, ptr nonnull %3) #17
  store i64 0, ptr %0, align 8, !tbaa !73
  %6 = getelementptr inbounds nuw i8, ptr %0, i64 8
  store ptr %3, ptr %6, align 8, !tbaa !80
  %7 = getelementptr inbounds nuw i8, ptr %0, i64 16
  store i8 0, ptr %7, align 8, !tbaa !81
  %8 = getelementptr inbounds nuw i8, ptr %0, i64 17
  store i8 -1, ptr %8, align 1, !tbaa !82
  %9 = getelementptr inbounds nuw i8, ptr %0, i64 18
  store i8 0, ptr %9, align 2, !tbaa !83
  %10 = getelementptr inbounds nuw i8, ptr %0, i64 20
  store i32 0, ptr %10, align 4, !tbaa !84
  %11 = getelementptr inbounds nuw i8, ptr %0, i64 24
  store i8 0, ptr %11, align 8, !tbaa !85
  %12 = getelementptr inbounds nuw i8, ptr %0, i64 25
  store i8 1, ptr %12, align 1, !tbaa !86
  call void @llvm.lifetime.end.p0(i64 24, ptr nonnull %3) #17
  br label %17

13:                                               ; preds = %2
  %14 = load ptr, ptr %4, align 8, !tbaa !3
  %15 = getelementptr inbounds nuw i8, ptr %14, i64 96
  %16 = load ptr, ptr %15, align 8
  tail call void %16(ptr dead_on_unwind writable sret(%"struct.net::PendingRetransmission") align 8 %0, ptr noundef nonnull align 8 dereferenceable(8) %4)
  br label %17

17:                                               ; preds = %13, %_ZNSt6vectorIN3net9QuicFrameESaIS1_EED2Ev.exit
  ret void
}